; Function Attrs: nounwind uwtable
define hidden noundef ptr @ZIP_Open_Generic(ptr nocapture noundef readonly %0, ptr noundef %1, i32 noundef %2, i64 noundef %3) local_unnamed_addr #0 {
  %.not = icmp eq ptr %1, null
  br i1 %.not, label %.thread, label %6

.thread:                                          ; preds = %4
  %5 = tail call ptr @ZIP_Get_From_Cache(ptr noundef %0, ptr noundef null, i64 noundef %3)
  br label %15

6:                                                ; preds = %4
  store ptr null, ptr %1, align 8
  %7 = tail call ptr @ZIP_Get_From_Cache(ptr noundef %0, ptr noundef nonnull %1, i64 noundef %3)
  %8 = icmp eq ptr %7, null
  br i1 %8, label %9, label %15

9:                                                ; preds = %6
  %10 = load ptr, ptr %1, align 8
  %11 = icmp eq ptr %10, null
  br i1 %11, label %12, label %15

12:                                               ; preds = %9
  %13 = tail call noundef i32 (ptr, i32, ...) @open64(ptr noundef readonly %0, i32 noundef %2, i32 noundef 0) #21
  %14 = tail call noundef ptr @ZIP_Put_In_Cache0(ptr noundef readonly %0, i32 noundef %13, ptr noundef nonnull %1, i64 noundef %3, i8 noundef zeroext 1)
  br label %15

15:                                               ; preds = %.thread, %12, %9, %6
  %.0 = phi ptr [ %14, %12 ], [ null, %9 ], [ %7, %6 ], [ %5, %.thread ]
  ret ptr %.0
}